target datalayout = "e-m:e-p270:32:32-p271:32:32-p272:64:64-i64:64-i128:128-f80:128-n8:16:32:64-S128"
target triple = "x86_64-pc-linux-gnu"

%class.Register = type { i32 }
%class.XMMRegister = type { i32 }
%class.MachNode = type { %class.Node.base, i8, i16, ptr }
%class.Node.base = type <{ ptr, ptr, ptr, i32, i32, i32, i32, i32, i32, i32 }>
%class.string_indexof_conULNode = type { %class.MachNode, [6 x ptr] }

@_ZL5noreg = internal constant %class.Register { i32 -1 }, align 4
@_ZL6xnoreg = internal constant %class.XMMRegister { i32 -1 }, align 4

; Function Attrs: mustprogress nounwind uwtable
define linkonce_odr hidden void @_ZN11XMMRegisterC2Eib(ptr noundef nonnull align 4 dereferenceable(4) %0, i32 noundef %1, i1 noundef zeroext %2) unnamed_addr #1 comdat align 2 {
  %4 = alloca ptr, align 8
  %5 = alloca i32, align 4
  %6 = alloca i8, align 1
  store ptr %0, ptr %4, align 8
  store i32 %1, ptr %5, align 4
  %7 = zext i1 %2 to i8
  store i8 %7, ptr %6, align 1
  %8 = load ptr, ptr %4, align 8
  %9 = getelementptr inbounds %class.XMMRegister, ptr %8, i32 0, i32 0
  %10 = load i32, ptr %5, align 4
  store i32 %10, ptr %9, align 4
  ret void
}

; Function Attrs: mustprogress nounwind uwtable
define linkonce_odr hidden i32 @_Z14as_XMMRegisteri(i32 noundef %0) #1 comdat {
  %2 = alloca %class.XMMRegister, align 4
  %3 = alloca i32, align 4
  store i32 %0, ptr %3, align 4
  %4 = load i32, ptr %3, align 4
  %5 = icmp sle i32 0, %4
  br i1 %5, label %6, label %11

6:                                                ; preds = %1
  %7 = load i32, ptr %3, align 4
  %8 = icmp slt i32 %7, 32
  br i1 %8, label %9, label %11

9:                                                ; preds = %6
  %10 = load i32, ptr %3, align 4
  call void @_ZN11XMMRegisterC2Eib(ptr noundef nonnull align 4 dereferenceable(4) %2, i32 noundef %10, i1 noundef zeroext false)
  br label %12

11:                                               ; preds = %6, %1
  call void @llvm.memcpy.p0.p0.i64(ptr align 4 %2, ptr align 4 @_ZL6xnoreg, i64 4, i1 false)
  br label %12

12:                                               ; preds = %11, %9
  %13 = getelementptr inbounds %class.XMMRegister, ptr %2, i32 0, i32 0
  %14 = load i32, ptr %13, align 4
  ret i32 %14
}

; Function Attrs: mustprogress nounwind uwtable
define linkonce_odr hidden void @_ZN8RegisterC2Eib(ptr noundef nonnull align 4 dereferenceable(4) %0, i32 noundef %1, i1 noundef zeroext %2) unnamed_addr #1 comdat align 2 {
  %4 = alloca ptr, align 8
  %5 = alloca i32, align 4
  %6 = alloca i8, align 1
  store ptr %0, ptr %4, align 8
  store i32 %1, ptr %5, align 4
  %7 = zext i1 %2 to i8
  store i8 %7, ptr %6, align 1
  %8 = load ptr, ptr %4, align 8
  %9 = getelementptr inbounds %class.Register, ptr %8, i32 0, i32 0
  %10 = load i32, ptr %5, align 4
  store i32 %10, ptr %9, align 4
  ret void
}

; Function Attrs: mustprogress nounwind uwtable
define linkonce_odr hidden i32 @_ZNK8MachOper14as_XMMRegisterEP13PhaseRegAllocPK4Nodei(ptr noundef nonnull align 8 dereferenceable(8) %0, ptr noundef %1, ptr noundef %2, i32 noundef %3) #1 comdat align 2 {
  %5 = alloca %class.XMMRegister, align 4
  %6 = alloca ptr, align 8
  %7 = alloca ptr, align 8
  %8 = alloca ptr, align 8
  %9 = alloca i32, align 4
  store ptr %0, ptr %6, align 8
  store ptr %1, ptr %7, align 8
  store ptr %2, ptr %8, align 8
  store i32 %3, ptr %9, align 4
  %10 = load ptr, ptr %6, align 8
  %11 = load ptr, ptr %7, align 8
  %12 = load ptr, ptr %8, align 8
  %13 = load i32, ptr %9, align 4
  %14 = load ptr, ptr %10, align 8
  %15 = getelementptr inbounds ptr, ptr %14, i64 5
  %16 = load ptr, ptr %15, align 8
  %17 = call noundef i32 %16(ptr noundef nonnull align 8 dereferenceable(8) %10, ptr noundef %11, ptr noundef %12, i32 noundef %13)
  %18 = call i32 @_Z14as_XMMRegisteri(i32 noundef %17)
  %19 = getelementptr inbounds %class.XMMRegister, ptr %5, i32 0, i32 0
  store i32 %18, ptr %19, align 4
  %20 = getelementptr inbounds %class.XMMRegister, ptr %5, i32 0, i32 0
  %21 = load i32, ptr %20, align 4
  ret i32 %21
}

; Function Attrs: mustprogress nounwind uwtable
define linkonce_odr hidden i32 @_ZNK8MachOper11as_RegisterEP13PhaseRegAllocPK4Node(ptr noundef nonnull align 8 dereferenceable(8) %0, ptr noundef %1, ptr noundef %2) #1 comdat align 2 {
  %4 = alloca %class.Register, align 4
  %5 = alloca ptr, align 8
  %6 = alloca ptr, align 8
  %7 = alloca ptr, align 8
  store ptr %0, ptr %5, align 8
  store ptr %1, ptr %6, align 8
  store ptr %2, ptr %7, align 8
  %8 = load ptr, ptr %5, align 8
  %9 = load ptr, ptr %6, align 8
  %10 = load ptr, ptr %7, align 8
  %11 = load ptr, ptr %8, align 8
  %12 = getelementptr inbounds ptr, ptr %11, i64 4
  %13 = load ptr, ptr %12, align 8
  %14 = call noundef i32 %13(ptr noundef nonnull align 8 dereferenceable(8) %8, ptr noundef %9, ptr noundef %10)
  %15 = call i32 @_Z11as_Registeri(i32 noundef %14)
  %16 = getelementptr inbounds %class.Register, ptr %4, i32 0, i32 0
  store i32 %15, ptr %16, align 4
  %17 = getelementptr inbounds %class.Register, ptr %4, i32 0, i32 0
  %18 = load i32, ptr %17, align 4
  ret i32 %18
}

; Function Attrs: mustprogress nounwind uwtable
define linkonce_odr hidden i32 @_Z11as_Registeri(i32 noundef %0) #1 comdat {
  %2 = alloca %class.Register, align 4
  %3 = alloca i32, align 4
  store i32 %0, ptr %3, align 4
  %4 = load i32, ptr %3, align 4
  %5 = icmp sle i32 0, %4
  br i1 %5, label %6, label %11

6:                                                ; preds = %1
  %7 = load i32, ptr %3, align 4
  %8 = icmp slt i32 %7, 32
  br i1 %8, label %9, label %11

9:                                                ; preds = %6
  %10 = load i32, ptr %3, align 4
  call void @_ZN8RegisterC2Eib(ptr noundef nonnull align 4 dereferenceable(4) %2, i32 noundef %10, i1 noundef zeroext false)
  br label %12

11:                                               ; preds = %6, %1
  call void @llvm.memcpy.p0.p0.i64(ptr align 4 %2, ptr align 4 @_ZL5noreg, i64 4, i1 false)
  br label %12

12:                                               ; preds = %11, %9
  %13 = getelementptr inbounds %class.Register, ptr %2, i32 0, i32 0
  %14 = load i32, ptr %13, align 4
  ret i32 %14
}

; Function Attrs: mustprogress nounwind uwtable
define linkonce_odr hidden i32 @_ZNK8MachOper11as_RegisterEP13PhaseRegAllocPK4Nodei(ptr noundef nonnull align 8 dereferenceable(8) %0, ptr noundef %1, ptr noundef %2, i32 noundef %3) #1 comdat align 2 {
  %5 = alloca %class.Register, align 4
  %6 = alloca ptr, align 8
  %7 = alloca ptr, align 8
  %8 = alloca ptr, align 8
  %9 = alloca i32, align 4
  store ptr %0, ptr %6, align 8
  store ptr %1, ptr %7, align 8
  store ptr %2, ptr %8, align 8
  store i32 %3, ptr %9, align 4
  %10 = load ptr, ptr %6, align 8
  %11 = load ptr, ptr %7, align 8
  %12 = load ptr, ptr %8, align 8
  %13 = load i32, ptr %9, align 4
  %14 = load ptr, ptr %10, align 8
  %15 = getelementptr inbounds ptr, ptr %14, i64 5
  %16 = load ptr, ptr %15, align 8
  %17 = call noundef i32 %16(ptr noundef nonnull align 8 dereferenceable(8) %10, ptr noundef %11, ptr noundef %12, i32 noundef %13)
  %18 = call i32 @_Z11as_Registeri(i32 noundef %17)
  %19 = getelementptr inbounds %class.Register, ptr %5, i32 0, i32 0
  store i32 %18, ptr %19, align 4
  %20 = getelementptr inbounds %class.Register, ptr %5, i32 0, i32 0
  %21 = load i32, ptr %20, align 4
  ret i32 %21
}

; Function Attrs: mustprogress nounwind uwtable
define linkonce_odr hidden noundef ptr @_ZNK24string_indexof_conULNode10opnd_arrayEj(ptr noundef nonnull align 8 dereferenceable(112) %0, i32 noundef %1) #1 comdat align 2 {
  %3 = alloca ptr, align 8
  %4 = alloca i32, align 4
  store ptr %0, ptr %3, align 8
  store i32 %1, ptr %4, align 4
  %5 = load ptr, ptr %3, align 8
  %6 = getelementptr inbounds %class.string_indexof_conULNode, ptr %5, i32 0, i32 1
  %7 = load i32, ptr %4, align 4
  %8 = zext i32 %7 to i64
  %9 = getelementptr inbounds [6 x ptr], ptr %6, i64 0, i64 %8
  %10 = load ptr, ptr %9, align 8
  ret ptr %10
}

; Function Attrs: mustprogress nounwind uwtable
define hidden void @_ZNK24string_indexof_conULNode4emitEP17C2_MacroAssemblerP13PhaseRegAlloc(ptr noundef nonnull align 8 dereferenceable(112) %0, ptr noundef %1, ptr noundef %2) unnamed_addr #1 align 2 {
  %4 = alloca ptr, align 8
  %5 = alloca ptr, align 8
  %6 = alloca ptr, align 8
  %7 = alloca i32, align 4
  %8 = alloca i32, align 4
  %9 = alloca i32, align 4
  %10 = alloca i32, align 4
  %11 = alloca i32, align 4
  %12 = alloca i32, align 4
  %13 = alloca i32, align 4
  %14 = alloca %class.Register, align 4
  %15 = alloca %class.Register, align 4
  %16 = alloca %class.Register, align 4
  %17 = alloca %class.Register, align 4
  %18 = alloca %class.Register, align 4
  %19 = alloca %class.XMMRegister, align 4
  %20 = alloca %class.Register, align 4
  %21 = alloca %class.Register, align 4
  %22 = alloca %class.Register, align 4
  %23 = alloca %class.Register, align 4
  %24 = alloca %class.Register, align 4
  %25 = alloca %class.Register, align 4
  %26 = alloca %class.XMMRegister, align 4
  %27 = alloca %class.Register, align 4
  store ptr %0, ptr %4, align 8
  store ptr %1, ptr %5, align 8
  store ptr %2, ptr %6, align 8
  %28 = load ptr, ptr %4, align 8
  store i32 2, ptr %7, align 4
  store i32 2, ptr %8, align 4
  %29 = load i32, ptr %8, align 4
  %30 = call noundef ptr @_ZNK24string_indexof_conULNode10opnd_arrayEj(ptr noundef nonnull align 8 dereferenceable(112) %28, i32 noundef 1)
  %31 = load ptr, ptr %30, align 8
  %32 = getelementptr inbounds ptr, ptr %31, i64 1
  %33 = load ptr, ptr %32, align 8
  %34 = call noundef i32 %33(ptr noundef nonnull align 8 dereferenceable(8) %30)
  %35 = add i32 %29, %34
  store i32 %35, ptr %9, align 4
  %36 = load i32, ptr %9, align 4
  %37 = call noundef ptr @_ZNK24string_indexof_conULNode10opnd_arrayEj(ptr noundef nonnull align 8 dereferenceable(112) %28, i32 noundef 2)
  %38 = load ptr, ptr %37, align 8
  %39 = getelementptr inbounds ptr, ptr %38, i64 1
  %40 = load ptr, ptr %39, align 8
  %41 = call noundef i32 %40(ptr noundef nonnull align 8 dereferenceable(8) %37)
  %42 = add i32 %36, %41
  store i32 %42, ptr %10, align 4
  %43 = load i32, ptr %10, align 4
  %44 = call noundef ptr @_ZNK24string_indexof_conULNode10opnd_arrayEj(ptr noundef nonnull align 8 dereferenceable(112) %28, i32 noundef 3)
  %45 = load ptr, ptr %44, align 8
  %46 = getelementptr inbounds ptr, ptr %45, i64 1
  %47 = load ptr, ptr %46, align 8
  %48 = call noundef i32 %47(ptr noundef nonnull align 8 dereferenceable(8) %44)
  %49 = add i32 %43, %48
  store i32 %49, ptr %11, align 4
  %50 = load i32, ptr %11, align 4
  %51 = call noundef ptr @_ZNK24string_indexof_conULNode10opnd_arrayEj(ptr noundef nonnull align 8 dereferenceable(112) %28, i32 noundef 4)
  %52 = load ptr, ptr %51, align 8
  %53 = getelementptr inbounds ptr, ptr %52, i64 1
  %54 = load ptr, ptr %53, align 8
  %55 = call noundef i32 %54(ptr noundef nonnull align 8 dereferenceable(8) %51)
  %56 = add i32 %50, %55
  store i32 %56, ptr %12, align 4
  %57 = call noundef ptr @_ZNK24string_indexof_conULNode10opnd_arrayEj(ptr noundef nonnull align 8 dereferenceable(112) %28, i32 noundef 4)
  %58 = load ptr, ptr %57, align 8
  %59 = getelementptr inbounds ptr, ptr %58, i64 6
  %60 = load ptr, ptr %59, align 8
  %61 = call noundef i64 %60(ptr noundef nonnull align 8 dereferenceable(8) %57)
  %62 = trunc i64 %61 to i32
  store i32 %62, ptr %13, align 4
  %63 = load i32, ptr %13, align 4
  %64 = icmp sge i32 %63, 8
  br i1 %64, label %65, label %110

65:                                               ; preds = %3
  %66 = load ptr, ptr %5, align 8
  %67 = call noundef ptr @_ZNK24string_indexof_conULNode10opnd_arrayEj(ptr noundef nonnull align 8 dereferenceable(112) %28, i32 noundef 1)
  %68 = load ptr, ptr %6, align 8
  %69 = load i32, ptr %8, align 4
  %70 = call i32 @_ZNK8MachOper11as_RegisterEP13PhaseRegAllocPK4Nodei(ptr noundef nonnull align 8 dereferenceable(8) %67, ptr noundef %68, ptr noundef %28, i32 noundef %69)
  %71 = getelementptr inbounds %class.Register, ptr %14, i32 0, i32 0
  store i32 %70, ptr %71, align 4
  %72 = call noundef ptr @_ZNK24string_indexof_conULNode10opnd_arrayEj(ptr noundef nonnull align 8 dereferenceable(112) %28, i32 noundef 3)
  %73 = load ptr, ptr %6, align 8
  %74 = load i32, ptr %10, align 4
  %75 = call i32 @_ZNK8MachOper11as_RegisterEP13PhaseRegAllocPK4Nodei(ptr noundef nonnull align 8 dereferenceable(8) %72, ptr noundef %73, ptr noundef %28, i32 noundef %74)
  %76 = getelementptr inbounds %class.Register, ptr %15, i32 0, i32 0
  store i32 %75, ptr %76, align 4
  %77 = call noundef ptr @_ZNK24string_indexof_conULNode10opnd_arrayEj(ptr noundef nonnull align 8 dereferenceable(112) %28, i32 noundef 2)
  %78 = load ptr, ptr %6, align 8
  %79 = load i32, ptr %9, align 4
  %80 = call i32 @_ZNK8MachOper11as_RegisterEP13PhaseRegAllocPK4Nodei(ptr noundef nonnull align 8 dereferenceable(8) %77, ptr noundef %78, ptr noundef %28, i32 noundef %79)
  %81 = getelementptr inbounds %class.Register, ptr %16, i32 0, i32 0
  store i32 %80, ptr %81, align 4
  %82 = call i32 @_Z11as_Registeri(i32 noundef 0)
  %83 = getelementptr inbounds %class.Register, ptr %17, i32 0, i32 0
  store i32 %82, ptr %83, align 4
  %84 = load i32, ptr %13, align 4
  %85 = call noundef ptr @_ZNK24string_indexof_conULNode10opnd_arrayEj(ptr noundef nonnull align 8 dereferenceable(112) %28, i32 noundef 0)
  %86 = load ptr, ptr %6, align 8
  %87 = call i32 @_ZNK8MachOper11as_RegisterEP13PhaseRegAllocPK4Node(ptr noundef nonnull align 8 dereferenceable(8) %85, ptr noundef %86, ptr noundef %28)
  %88 = getelementptr inbounds %class.Register, ptr %18, i32 0, i32 0
  store i32 %87, ptr %88, align 4
  %89 = call noundef ptr @_ZNK24string_indexof_conULNode10opnd_arrayEj(ptr noundef nonnull align 8 dereferenceable(112) %28, i32 noundef 5)
  %90 = load ptr, ptr %6, align 8
  %91 = load i32, ptr %12, align 4
  %92 = call i32 @_ZNK8MachOper14as_XMMRegisterEP13PhaseRegAllocPK4Nodei(ptr noundef nonnull align 8 dereferenceable(8) %89, ptr noundef %90, ptr noundef %28, i32 noundef %91)
  %93 = getelementptr inbounds %class.XMMRegister, ptr %19, i32 0, i32 0
  store i32 %92, ptr %93, align 4
  %94 = call i32 @_Z11as_Registeri(i32 noundef 1)
  %95 = getelementptr inbounds %class.Register, ptr %20, i32 0, i32 0
  store i32 %94, ptr %95, align 4
  %96 = getelementptr inbounds %class.Register, ptr %14, i32 0, i32 0
  %97 = load i32, ptr %96, align 4
  %98 = getelementptr inbounds %class.Register, ptr %15, i32 0, i32 0
  %99 = load i32, ptr %98, align 4
  %100 = getelementptr inbounds %class.Register, ptr %16, i32 0, i32 0
  %101 = load i32, ptr %100, align 4
  %102 = getelementptr inbounds %class.Register, ptr %17, i32 0, i32 0
  %103 = load i32, ptr %102, align 4
  %104 = getelementptr inbounds %class.Register, ptr %18, i32 0, i32 0
  %105 = load i32, ptr %104, align 4
  %106 = getelementptr inbounds %class.XMMRegister, ptr %19, i32 0, i32 0
  %107 = load i32, ptr %106, align 4
  %108 = getelementptr inbounds %class.Register, ptr %20, i32 0, i32 0
  %109 = load i32, ptr %108, align 4
  call void @_ZN17C2_MacroAssembler16string_indexofC8E8RegisterS0_S0_S0_iS0_11XMMRegisterS0_i(ptr noundef nonnull align 8 dereferenceable(40) %66, i32 %97, i32 %99, i32 %101, i32 %103, i32 noundef %84, i32 %105, i32 %107, i32 %109, i32 noundef 2)
  br label %155

110:                                              ; preds = %3
  %111 = load ptr, ptr %5, align 8
  %112 = call noundef ptr @_ZNK24string_indexof_conULNode10opnd_arrayEj(ptr noundef nonnull align 8 dereferenceable(112) %28, i32 noundef 1)
  %113 = load ptr, ptr %6, align 8
  %114 = load i32, ptr %8, align 4
  %115 = call i32 @_ZNK8MachOper11as_RegisterEP13PhaseRegAllocPK4Nodei(ptr noundef nonnull align 8 dereferenceable(8) %112, ptr noundef %113, ptr noundef %28, i32 noundef %114)
  %116 = getelementptr inbounds %class.Register, ptr %21, i32 0, i32 0
  store i32 %115, ptr %116, align 4
  %117 = call noundef ptr @_ZNK24string_indexof_conULNode10opnd_arrayEj(ptr noundef nonnull align 8 dereferenceable(112) %28, i32 noundef 3)
  %118 = load ptr, ptr %6, align 8
  %119 = load i32, ptr %10, align 4
  %120 = call i32 @_ZNK8MachOper11as_RegisterEP13PhaseRegAllocPK4Nodei(ptr noundef nonnull align 8 dereferenceable(8) %117, ptr noundef %118, ptr noundef %28, i32 noundef %119)
  %121 = getelementptr inbounds %class.Register, ptr %22, i32 0, i32 0
  store i32 %120, ptr %121, align 4
  %122 = call noundef ptr @_ZNK24string_indexof_conULNode10opnd_arrayEj(ptr noundef nonnull align 8 dereferenceable(112) %28, i32 noundef 2)
  %123 = load ptr, ptr %6, align 8
  %124 = load i32, ptr %9, align 4
  %125 = call i32 @_ZNK8MachOper11as_RegisterEP13PhaseRegAllocPK4Nodei(ptr noundef nonnull align 8 dereferenceable(8) %122, ptr noundef %123, ptr noundef %28, i32 noundef %124)
  %126 = getelementptr inbounds %class.Register, ptr %23, i32 0, i32 0
  store i32 %125, ptr %126, align 4
  %127 = call i32 @_Z11as_Registeri(i32 noundef 0)
  %128 = getelementptr inbounds %class.Register, ptr %24, i32 0, i32 0
  store i32 %127, ptr %128, align 4
  %129 = load i32, ptr %13, align 4
  %130 = call noundef ptr @_ZNK24string_indexof_conULNode10opnd_arrayEj(ptr noundef nonnull align 8 dereferenceable(112) %28, i32 noundef 0)
  %131 = load ptr, ptr %6, align 8
  %132 = call i32 @_ZNK8MachOper11as_RegisterEP13PhaseRegAllocPK4Node(ptr noundef nonnull align 8 dereferenceable(8) %130, ptr noundef %131, ptr noundef %28)
  %133 = getelementptr inbounds %class.Register, ptr %25, i32 0, i32 0
  store i32 %132, ptr %133, align 4
  %134 = call noundef ptr @_ZNK24string_indexof_conULNode10opnd_arrayEj(ptr noundef nonnull align 8 dereferenceable(112) %28, i32 noundef 5)
  %135 = load ptr, ptr %6, align 8
  %136 = load i32, ptr %12, align 4
  %137 = call i32 @_ZNK8MachOper14as_XMMRegisterEP13PhaseRegAllocPK4Nodei(ptr noundef nonnull align 8 dereferenceable(8) %134, ptr noundef %135, ptr noundef %28, i32 noundef %136)
  %138 = getelementptr inbounds %class.XMMRegister, ptr %26, i32 0, i32 0
  store i32 %137, ptr %138, align 4
  %139 = call i32 @_Z11as_Registeri(i32 noundef 1)
  %140 = getelementptr inbounds %class.Register, ptr %27, i32 0, i32 0
  store i32 %139, ptr %140, align 4
  %141 = getelementptr inbounds %class.Register, ptr %21, i32 0, i32 0
  %142 = load i32, ptr %141, align 4
  %143 = getelementptr inbounds %class.Register, ptr %22, i32 0, i32 0
  %144 = load i32, ptr %143, align 4
  %145 = getelementptr inbounds %class.Register, ptr %23, i32 0, i32 0
  %146 = load i32, ptr %145, align 4
  %147 = getelementptr inbounds %class.Register, ptr %24, i32 0, i32 0
  %148 = load i32, ptr %147, align 4
  %149 = getelementptr inbounds %class.Register, ptr %25, i32 0, i32 0
  %150 = load i32, ptr %149, align 4
  %151 = getelementptr inbounds %class.XMMRegister, ptr %26, i32 0, i32 0
  %152 = load i32, ptr %151, align 4
  %153 = getelementptr inbounds %class.Register, ptr %27, i32 0, i32 0
  %154 = load i32, ptr %153, align 4
  call void @_ZN17C2_MacroAssembler14string_indexofE8RegisterS0_S0_S0_iS0_11XMMRegisterS0_i(ptr noundef nonnull align 8 dereferenceable(40) %111, i32 %142, i32 %144, i32 %146, i32 %148, i32 noundef %129, i32 %150, i32 %152, i32 %154, i32 noundef 2)
  br label %155

155:                                              ; preds = %110, %65
  ret void
}