; Function Attrs: mustprogress nounwind uwtable
define hidden void @_ZNK24string_indexof_conULNode4emitEP17C2_MacroAssemblerP13PhaseRegAlloc(ptr noundef nonnull align 8 dereferenceable(112) %0, ptr noundef %1, ptr noundef %2) unnamed_addr #3 align 2 {
  %4 = getelementptr inbounds i8, ptr %0, i64 64
  %5 = getelementptr inbounds i8, ptr %0, i64 72
  %6 = load ptr, ptr %5, align 8
  %7 = load ptr, ptr %6, align 8
  %8 = getelementptr inbounds i8, ptr %7, i64 8
  %9 = load ptr, ptr %8, align 8
  %10 = tail call noundef i32 %9(ptr noundef nonnull align 8 dereferenceable(8) %6) #23
  %11 = add i32 %10, 2
  %12 = getelementptr inbounds i8, ptr %0, i64 80
  %13 = load ptr, ptr %12, align 8
  %14 = load ptr, ptr %13, align 8
  %15 = getelementptr inbounds i8, ptr %14, i64 8
  %16 = load ptr, ptr %15, align 8
  %17 = tail call noundef i32 %16(ptr noundef nonnull align 8 dereferenceable(8) %13) #23
  %18 = add i32 %17, %11
  %19 = getelementptr inbounds i8, ptr %0, i64 88
  %20 = load ptr, ptr %19, align 8
  %21 = load ptr, ptr %20, align 8
  %22 = getelementptr inbounds i8, ptr %21, i64 8
  %23 = load ptr, ptr %22, align 8
  %24 = tail call noundef i32 %23(ptr noundef nonnull align 8 dereferenceable(8) %20) #23
  %25 = add i32 %24, %18
  %26 = getelementptr inbounds i8, ptr %0, i64 96
  %27 = load ptr, ptr %26, align 8
  %28 = load ptr, ptr %27, align 8
  %29 = getelementptr inbounds i8, ptr %28, i64 8
  %30 = load ptr, ptr %29, align 8
  %31 = tail call noundef i32 %30(ptr noundef nonnull align 8 dereferenceable(8) %27) #23
  %32 = add i32 %25, %31
  %33 = load ptr, ptr %26, align 8
  %34 = load ptr, ptr %33, align 8
  %35 = getelementptr inbounds i8, ptr %34, i64 48
  %36 = load ptr, ptr %35, align 8
  %37 = tail call noundef i64 %36(ptr noundef nonnull align 8 dereferenceable(8) %33) #23
  %38 = trunc i64 %37 to i32
  %39 = icmp sgt i32 %38, 7
  %40 = load ptr, ptr %5, align 8
  %41 = load ptr, ptr %40, align 8
  %42 = getelementptr inbounds i8, ptr %41, i64 40
  %43 = load ptr, ptr %42, align 8
  %44 = tail call noundef i32 %43(ptr noundef nonnull align 8 dereferenceable(8) %40, ptr noundef %2, ptr noundef nonnull %0, i32 noundef 2) #23
  %or.cond.i.i = icmp ult i32 %44, 32
  %spec.select.i.i = select i1 %or.cond.i.i, i32 %44, i32 -1
  %45 = load ptr, ptr %19, align 8
  %46 = load ptr, ptr %45, align 8
  %47 = getelementptr inbounds i8, ptr %46, i64 40
  %48 = load ptr, ptr %47, align 8
  %49 = tail call noundef i32 %48(ptr noundef nonnull align 8 dereferenceable(8) %45, ptr noundef %2, ptr noundef nonnull %0, i32 noundef %18) #23
  %or.cond.i.i40 = icmp ult i32 %49, 32
  %spec.select.i.i41 = select i1 %or.cond.i.i40, i32 %49, i32 -1
  %50 = load ptr, ptr %12, align 8
  %51 = load ptr, ptr %50, align 8
  %52 = getelementptr inbounds i8, ptr %51, i64 40
  %53 = load ptr, ptr %52, align 8
  %54 = tail call noundef i32 %53(ptr noundef nonnull align 8 dereferenceable(8) %50, ptr noundef %2, ptr noundef nonnull %0, i32 noundef %11) #23
  %or.cond.i.i42 = icmp ult i32 %54, 32
  %spec.select.i.i43 = select i1 %or.cond.i.i42, i32 %54, i32 -1
  %55 = load ptr, ptr %4, align 8
  %56 = load ptr, ptr %55, align 8
  %57 = getelementptr inbounds i8, ptr %56, i64 32
  %58 = load ptr, ptr %57, align 8
  %59 = tail call noundef i32 %58(ptr noundef nonnull align 8 dereferenceable(8) %55, ptr noundef %2, ptr noundef nonnull %0) #23
  %or.cond.i.i44 = icmp ult i32 %59, 32
  %spec.select.i.i45 = select i1 %or.cond.i.i44, i32 %59, i32 -1
  %60 = getelementptr inbounds i8, ptr %0, i64 104
  %61 = load ptr, ptr %60, align 8
  %62 = load ptr, ptr %61, align 8
  %63 = getelementptr inbounds i8, ptr %62, i64 40
  %64 = load ptr, ptr %63, align 8
  %65 = tail call noundef i32 %64(ptr noundef nonnull align 8 dereferenceable(8) %61, ptr noundef %2, ptr noundef nonnull %0, i32 noundef %32) #23
  %or.cond.i.i46 = icmp ult i32 %65, 32
  %spec.select.i.i47 = select i1 %or.cond.i.i46, i32 %65, i32 -1
  br i1 %39, label %66, label %67

66:                                               ; preds = %3
  tail call void @_ZN17C2_MacroAssembler16string_indexofC8E8RegisterS0_S0_S0_iS0_11XMMRegisterS0_i(ptr noundef nonnull align 8 dereferenceable(40) %1, i32 %spec.select.i.i, i32 %spec.select.i.i41, i32 %spec.select.i.i43, i32 0, i32 noundef %38, i32 %spec.select.i.i45, i32 %spec.select.i.i47, i32 1, i32 noundef 2) #23
  br label %68

67:                                               ; preds = %3
  tail call void @_ZN17C2_MacroAssembler14string_indexofE8RegisterS0_S0_S0_iS0_11XMMRegisterS0_i(ptr noundef nonnull align 8 dereferenceable(40) %1, i32 %spec.select.i.i, i32 %spec.select.i.i41, i32 %spec.select.i.i43, i32 0, i32 noundef %38, i32 %spec.select.i.i45, i32 %spec.select.i.i47, i32 1, i32 noundef 2) #23
  br label %68

68:                                               ; preds = %67, %66
  ret void
}